; Function Attrs: nounwind uwtable
define hidden void @Wayland_data_device_set_serial(ptr noundef captures(address_is_null) %0, i32 noundef %1) local_unnamed_addr #0 {
  %.not = icmp eq ptr %0, null
  br i1 %.not, label %16, label %3

3:                                                ; preds = %2
  %4 = getelementptr inbounds nuw i8, ptr %0, i64 72
  store i32 %1, ptr %4, align 8
  %5 = icmp eq i32 %1, 0
  br i1 %5, label %6, label %16

6:                                                ; preds = %3
  %7 = getelementptr inbounds nuw i8, ptr %0, i64 80
  %8 = load ptr, ptr %7, align 8
  %.not9 = icmp eq ptr %8, null
  br i1 %.not9, label %16, label %9

9:                                                ; preds = %6
  %10 = load ptr, ptr %0, align 8
  %11 = load ptr, ptr %8, align 8
  %12 = load ptr, ptr @WAYLAND_wl_proxy_marshal_flags, align 8
  %13 = load ptr, ptr @WAYLAND_wl_proxy_get_version, align 8
  %14 = tail call i32 %13(ptr noundef %10) #12
  %15 = tail call ptr (ptr, i32, ptr, i32, i32, ...) %12(ptr noundef %10, i32 noundef 1, ptr noundef null, i32 noundef %14, i32 noundef 0, ptr noundef %11, i32 noundef 0) #12
  br label %16

16:                                               ; preds = %3, %6, %9, %2
  ret void
}